; Function Attrs: mustprogress nounwind uwtable
define internal void @"_ZNSt17_Function_handlerIFvRSt6vectorIhSaIhEEEZN4LIEF5MachO14SegmentCommand14content_resizeEmE3$_0E9_M_invokeERKSt9_Any_dataS3_"(ptr noundef nonnull readonly align 8 captures(none) dereferenceable(16) %0, ptr noundef nonnull align 8 dereferenceable(24) %1) #0 align 2 {
  %3 = alloca i8, align 1
  %.val = load i64, ptr %0, align 8, !tbaa !156
  %4 = getelementptr inbounds nuw i8, ptr %1, i64 8
  %5 = load ptr, ptr %4, align 8, !tbaa !52
  %6 = load ptr, ptr %1, align 8, !tbaa !49
  %7 = ptrtoint ptr %5 to i64
  %8 = ptrtoint ptr %6 to i64
  %9 = sub i64 %7, %8
  %.not.i.i.i = icmp ult i64 %9, %.val
  br i1 %.not.i.i.i, label %_ZNSt6vectorIhSaIhEE6resizeEmRKh.exit.i.i.i, label %"_ZSt10__invoke_rIvRZN4LIEF5MachO14SegmentCommand14content_resizeEmE3$_0JRSt6vectorIhSaIhEEEENSt9enable_ifIX16is_invocable_r_vIT_T0_DpT1_EESA_E4typeEOSB_DpOSC_.exit"

_ZNSt6vectorIhSaIhEE6resizeEmRKh.exit.i.i.i:      ; preds = %2
  call void @llvm.lifetime.start.p0(i64 1, ptr nonnull %3) #24
  store i8 0, ptr %3, align 1, !tbaa !23
  %10 = sub nuw i64 %.val, %9
  call void @_ZNSt6vectorIhSaIhEE14_M_fill_insertEN9__gnu_cxx17__normal_iteratorIPhS1_EEmRKh(ptr noundef nonnull align 8 dereferenceable(24) %1, ptr %5, i64 noundef %10, ptr noundef nonnull align 1 dereferenceable(1) %3)
  call void @llvm.lifetime.end.p0(i64 1, ptr nonnull %3) #24
  br label %"_ZSt10__invoke_rIvRZN4LIEF5MachO14SegmentCommand14content_resizeEmE3$_0JRSt6vectorIhSaIhEEEENSt9enable_ifIX16is_invocable_r_vIT_T0_DpT1_EESA_E4typeEOSB_DpOSC_.exit"

"_ZSt10__invoke_rIvRZN4LIEF5MachO14SegmentCommand14content_resizeEmE3$_0JRSt6vectorIhSaIhEEEENSt9enable_ifIX16is_invocable_r_vIT_T0_DpT1_EESA_E4typeEOSB_DpOSC_.exit": ; preds = %2, %_ZNSt6vectorIhSaIhEE6resizeEmRKh.exit.i.i.i
  ret void
}